; Function Attrs: mustprogress nounwind uwtable
define noundef range(i32 0, 2) i32 @_Z25glucose2_solver_addclausePN6Gluco210SimpSolverEPii(ptr noundef %0, ptr noundef readonly captures(none) %1, i32 noundef %2) local_unnamed_addr #0 {
  %4 = alloca %"class.Gluco2::vec.0", align 8
  call void @llvm.lifetime.start.p0(i64 16, ptr nonnull %4) #30
  call void @llvm.memset.p0.i64(ptr noundef nonnull align 8 dereferenceable(16) %4, i8 0, i64 16, i1 false)
  %5 = icmp sgt i32 %2, 0
  br i1 %5, label %.preheader.lr.ph, label %._crit_edge15

.preheader.lr.ph:                                 ; preds = %3
  %6 = getelementptr inbounds nuw i8, ptr %0, i64 736
  %7 = getelementptr inbounds nuw i8, ptr %4, i64 8
  %8 = getelementptr inbounds nuw i8, ptr %4, i64 12
  br label %.preheader

.preheader:                                       ; preds = %.preheader.lr.ph, %_ZN6Gluco23vecINS_3LitEE4pushERKS1_.exit
  %.014 = phi i32 [ 0, %.preheader.lr.ph ], [ %46, %_ZN6Gluco23vecINS_3LitEE4pushERKS1_.exit ]
  %.0813 = phi ptr [ %1, %.preheader.lr.ph ], [ %47, %_ZN6Gluco23vecINS_3LitEE4pushERKS1_.exit ]
  %9 = phi ptr [ null, %.preheader.lr.ph ], [ %42, %_ZN6Gluco23vecINS_3LitEE4pushERKS1_.exit ]
  %10 = load i32, ptr %.0813, align 4, !tbaa !6
  %11 = sdiv i32 %10, 2
  %12 = load i32, ptr %6, align 8, !tbaa !9
  %.not9 = icmp slt i32 %11, %12
  br i1 %.not9, label %._crit_edge, label %.lr.ph

._crit_edge15:                                    ; preds = %_ZN6Gluco23vecINS_3LitEE4pushERKS1_.exit, %3
  %.lcssa10 = phi ptr [ null, %3 ], [ %42, %_ZN6Gluco23vecINS_3LitEE4pushERKS1_.exit ]
  store ptr %.lcssa10, ptr %4, align 8
  %13 = getelementptr inbounds nuw i8, ptr %0, i64 1080
  call void @_ZNK6Gluco23vecINS_3LitEE6copyToERS2_(ptr noundef nonnull align 8 dereferenceable(16) %4, ptr noundef nonnull align 8 dereferenceable(16) %13)
  %14 = call noundef zeroext i1 @_ZN6Gluco210SimpSolver10addClause_ERNS_3vecINS_3LitEEE(ptr noundef nonnull align 8 dereferenceable(1684) %0, ptr noundef nonnull align 8 dereferenceable(16) %13) #30
  %15 = load ptr, ptr %4, align 8, !tbaa !13
  %.not.i.i = icmp eq ptr %15, null
  br i1 %.not.i.i, label %_ZN6Gluco23vecINS_3LitEED2Ev.exit, label %.preheader.i.i

.preheader.i.i:                                   ; preds = %._crit_edge15
  %16 = getelementptr inbounds nuw i8, ptr %4, i64 8
  store i32 0, ptr %16, align 8, !tbaa !16
  call void @free(ptr noundef nonnull %15) #30
  br label %_ZN6Gluco23vecINS_3LitEED2Ev.exit

_ZN6Gluco23vecINS_3LitEED2Ev.exit:                ; preds = %._crit_edge15, %.preheader.i.i
  %17 = zext i1 %14 to i32
  call void @llvm.lifetime.end.p0(i64 16, ptr nonnull %4) #30
  ret i32 %17

.lr.ph:                                           ; preds = %.preheader, %.lr.ph
  %18 = tail call noundef i32 @_ZN6Gluco210SimpSolver6newVarEbb(ptr noundef nonnull align 8 dereferenceable(1684) %0, i1 noundef zeroext true, i1 noundef zeroext true) #30
  %19 = load i32, ptr %.0813, align 4, !tbaa !6
  %20 = sdiv i32 %19, 2
  %21 = load i32, ptr %6, align 8, !tbaa !9
  %.not = icmp slt i32 %20, %21
  br i1 %.not, label %._crit_edge, label %.lr.ph, !llvm.loop !17

._crit_edge:                                      ; preds = %.lr.ph, %.preheader
  %.lcssa = phi i32 [ %10, %.preheader ], [ %19, %.lr.ph ]
  %22 = load i32, ptr %7, align 8, !tbaa !16
  %23 = load i32, ptr %8, align 4, !tbaa !19
  %24 = icmp eq i32 %22, %23
  br i1 %24, label %25, label %_ZN6Gluco23vecINS_3LitEE4pushERKS1_.exit

25:                                               ; preds = %._crit_edge
  %26 = ashr i32 %22, 1
  %27 = and i32 %26, -2
  %28 = tail call i32 @llvm.smax.i32(i32 %27, i32 0)
  %29 = add nuw nsw i32 %28, 2
  %30 = sub nsw i32 2147483647, %22
  %31 = icmp samesign ugt i32 %29, %30
  br i1 %31, label %.loopexit, label %32

32:                                               ; preds = %25
  %33 = add nsw i32 %29, %22
  store i32 %33, ptr %8, align 4, !tbaa !19
  %34 = sext i32 %33 to i64
  %35 = shl nsw i64 %34, 2
  %36 = tail call ptr @realloc(ptr noundef %9, i64 noundef %35) #31
  %37 = icmp eq ptr %36, null
  br i1 %37, label %38, label %_ZN6Gluco23vecINS_3LitEE4pushERKS1_.exit

38:                                               ; preds = %32
  %39 = tail call ptr @__errno_location() #32
  %40 = load i32, ptr %39, align 4, !tbaa !6
  %41 = icmp eq i32 %40, 12
  tail call void @llvm.assume(i1 %41)
  br label %.loopexit

.loopexit:                                        ; preds = %25, %38
  tail call fastcc void @_ZN6Gluco2L19fatal_out_of_memoryEv()
  unreachable

_ZN6Gluco23vecINS_3LitEE4pushERKS1_.exit:         ; preds = %._crit_edge, %32
  %42 = phi ptr [ %36, %32 ], [ %9, %._crit_edge ]
  %43 = add nsw i32 %22, 1
  store i32 %43, ptr %7, align 8, !tbaa !16
  %44 = sext i32 %22 to i64
  %45 = getelementptr inbounds %"struct.Gluco2::Lit", ptr %42, i64 %44
  store i32 %.lcssa, ptr %45, align 4, !tbaa !6
  %46 = add nuw nsw i32 %.014, 1
  %47 = getelementptr inbounds nuw i8, ptr %.0813, i64 4
  %exitcond.not = icmp eq i32 %46, %2
  br i1 %exitcond.not, label %._crit_edge15, label %.preheader, !llvm.loop !20
}